target datalayout = "e-m:e-p270:32:32-p271:32:32-p272:64:64-i64:64-i128:128-f80:128-n8:16:32:64-S128"
target triple = "x86_64-unknown-linux-gnu"

%"class.datalog::entry_storage" = type { i32, i32, i64, %class.svector, %class.hashtable, i64 }
%class.svector = type { %class.vector }
%class.vector = type { ptr }
%class.hashtable = type { %class.core_hashtable.base, [4 x i8] }
%class.core_hashtable.base = type <{ %"class.datalog::entry_storage::offset_hash_proc.base", [4 x i8], %"class.datalog::entry_storage::offset_eq_proc.base", [4 x i8], ptr, i32, i32, i32 }>
%"class.datalog::entry_storage::offset_hash_proc.base" = type <{ ptr, i32 }>
%"class.datalog::entry_storage::offset_eq_proc.base" = type <{ ptr, i32 }>
%class.core_hashtable = type <{ %"class.datalog::entry_storage::offset_hash_proc.base", [4 x i8], %"class.datalog::entry_storage::offset_eq_proc.base", [4 x i8], ptr, i32, i32, i32, [4 x i8] }>

; Function Attrs: mustprogress nounwind uwtable
define linkonce_odr hidden noundef i32 @_ZNK14core_hashtableI18default_hash_entryImEN7datalog13entry_storage16offset_hash_procENS3_14offset_eq_procEE8capacityEv(ptr noundef nonnull align 8 dereferenceable(52) %this) #5 comdat align 2 {
entry:
  %this.addr = alloca ptr, align 8
  store ptr %this, ptr %this.addr, align 8
  %this1 = load ptr, ptr %this.addr, align 8
  %m_capacity = getelementptr inbounds %class.core_hashtable, ptr %this1, i32 0, i32 5
  %0 = load i32, ptr %m_capacity, align 8
  ret i32 %0
}

; Function Attrs: mustprogress nounwind uwtable
define linkonce_odr hidden noundef i64 @_ZNK6vectorIcLb0EmE8capacityEv(ptr noundef nonnull align 8 dereferenceable(8) %this) #5 comdat align 2 {
entry:
  %retval = alloca i64, align 8
  %this.addr = alloca ptr, align 8
  store ptr %this, ptr %this.addr, align 8
  %this1 = load ptr, ptr %this.addr, align 8
  %m_data = getelementptr inbounds %class.vector, ptr %this1, i32 0, i32 0
  %0 = load ptr, ptr %m_data, align 8
  %cmp = icmp eq ptr %0, null
  br i1 %cmp, label %if.then, label %if.end

if.then:                                          ; preds = %entry
  store i64 0, ptr %retval, align 8
  br label %return

if.end:                                           ; preds = %entry
  %m_data2 = getelementptr inbounds %class.vector, ptr %this1, i32 0, i32 0
  %1 = load ptr, ptr %m_data2, align 8
  %arrayidx = getelementptr inbounds i64, ptr %1, i64 -2
  %2 = load i64, ptr %arrayidx, align 8
  store i64 %2, ptr %retval, align 8
  br label %return

return:                                           ; preds = %if.end, %if.then
  %3 = load i64, ptr %retval, align 8
  ret i64 %3
}

; Function Attrs: mustprogress uwtable
define hidden noundef i32 @_ZNK7datalog13entry_storage23get_size_estimate_bytesEv(ptr noundef nonnull align 8 dereferenceable(88) %this) #4 align 2 {
entry:
  %this.addr = alloca ptr, align 8
  %sz = alloca i64, align 8
  store ptr %this, ptr %this.addr, align 8
  %this1 = load ptr, ptr %this.addr, align 8
  %m_data = getelementptr inbounds %"class.datalog::entry_storage", ptr %this1, i32 0, i32 3
  %call = call noundef i64 @_ZNK6vectorIcLb0EmE8capacityEv(ptr noundef nonnull align 8 dereferenceable(8) %m_data)
  store i64 %call, ptr %sz, align 8
  %m_data_indexer = getelementptr inbounds %"class.datalog::entry_storage", ptr %this1, i32 0, i32 4
  %call2 = call noundef i32 @_ZNK14core_hashtableI18default_hash_entryImEN7datalog13entry_storage16offset_hash_procENS3_14offset_eq_procEE8capacityEv(ptr noundef nonnull align 8 dereferenceable(52) %m_data_indexer)
  %conv = zext i32 %call2 to i64
  %mul = mul i64 %conv, 16
  %0 = load i64, ptr %sz, align 8
  %add = add i64 %0, %mul
  store i64 %add, ptr %sz, align 8
  %1 = load i64, ptr %sz, align 8
  %conv3 = trunc i64 %1 to i32
  ret i32 %conv3
}