; Function Attrs: mustprogress nofree norecurse nosync nounwind willreturn memory(read, inaccessiblemem: none) uwtable
define hidden noundef i32 @_ZNK7datalog13entry_storage23get_size_estimate_bytesEv(ptr nocapture noundef nonnull readonly align 8 dereferenceable(88) %this) local_unnamed_addr #5 align 2 {
entry:
  %m_data = getelementptr inbounds i8, ptr %this, i64 16
  %0 = load ptr, ptr %m_data, align 8
  %cmp.i = icmp eq ptr %0, null
  br i1 %cmp.i, label %_ZNK6vectorIcLb0EmE8capacityEv.exit, label %if.end.i

if.end.i:                                         ; preds = %entry
  %arrayidx.i = getelementptr inbounds i8, ptr %0, i64 -16
  %1 = load i64, ptr %arrayidx.i, align 8
  br label %_ZNK6vectorIcLb0EmE8capacityEv.exit

_ZNK6vectorIcLb0EmE8capacityEv.exit:              ; preds = %entry, %if.end.i
  %retval.0.i = phi i64 [ %1, %if.end.i ], [ 0, %entry ]
  %m_capacity.i = getelementptr inbounds i8, ptr %this, i64 64
  %2 = load i32, ptr %m_capacity.i, align 8
  %conv = zext i32 %2 to i64
  %mul = shl nuw nsw i64 %conv, 4
  %add = add i64 %mul, %retval.0.i
  %conv3 = trunc i64 %add to i32
  ret i32 %conv3
}